; Function Attrs: nounwind uwtable
define hidden i32 @EC_POINT_get_affine_coordinates_GFp(ptr noundef %0, ptr noundef %1, ptr noundef %2, ptr noundef %3, ptr noundef %4) local_unnamed_addr #1 {
  %6 = load ptr, ptr %0, align 8, !tbaa !11
  %7 = getelementptr inbounds nuw i8, ptr %6, i64 32
  %8 = load ptr, ptr %7, align 8, !tbaa !40
  %9 = icmp eq ptr %8, null
  br i1 %9, label %10, label %11

10:                                               ; preds = %5
  tail call void @ERR_put_error(i32 noundef 15, i32 noundef 0, i32 noundef 66, ptr noundef nonnull @.str, i32 noundef 813) #11
  br label %16

11:                                               ; preds = %5
  %12 = load ptr, ptr %1, align 8, !tbaa !23
  %.not = icmp eq ptr %6, %12
  br i1 %.not, label %14, label %13

13:                                               ; preds = %11
  tail call void @ERR_put_error(i32 noundef 15, i32 noundef 0, i32 noundef 106, ptr noundef nonnull @.str, i32 noundef 817) #11
  br label %16

14:                                               ; preds = %11
  %15 = tail call i32 %8(ptr noundef nonnull %0, ptr noundef nonnull %1, ptr noundef %2, ptr noundef %3, ptr noundef %4) #11
  br label %16

16:                                               ; preds = %14, %13, %10
  %.0 = phi i32 [ 0, %10 ], [ 0, %13 ], [ %15, %14 ]
  ret i32 %.0
}